	.module LCD5510_V3_Demo.C
	.area lit(rom, con, rel)
_Font_code::
	.byte 0,0
	.byte 0,0
	.byte 0,0
	.byte 0,0
	.byte 0,'O
	.byte 0,0
	.byte 0,0
	.byte 7,0
	.byte 7,0
	.byte 0,20
	.byte 127,20
	.byte 127,20
	.byte 0,36
	.byte 42,127
	.byte 42,18
	.byte 0,35
	.byte 19,8
	.byte 'd,'b
	.byte 0,54
	.byte 'I,'U
	.byte 34,'P
	.byte 0,0
	.byte 5,3
	.byte 0,0
	.byte 0,0
	.byte 28,34
	.byte 'A,0
	.byte 0,0
	.byte 'A,34
	.byte 28,0
	.byte 0,20
	.byte 8,62
	.byte 8,20
	.byte 0,8
	.byte 8,62
	.byte 8,8
	.byte 0,0
	.byte 'P,48
	.byte 0,0
	.byte 0,8
	.byte 8,8
	.byte 8,8
	.byte 0,0
	.byte 96,96
	.byte 0,0
	.byte 0,32
	.byte 16,8
	.byte 4,2
	.byte 0,62
	.byte 'Q,'I
	.byte 'E,62
	.byte 0,0
	.byte 'B,127
	.byte 64,0
	.byte 0,'B
	.byte 'a,'Q
	.byte 'I,'F
	.byte 0,33
	.byte 'A,'E
	.byte 'K,49
	.byte 0,24
	.byte 20,18
	.byte 127,16
	.byte 0,39
	.byte 'E,'E
	.byte 'E,57
	.byte 0,60
	.byte 'J,'I
	.byte 'I,48
	.byte 0,1
	.byte 'q,9
	.byte 5,3
	.byte 0,54
	.byte 'I,'I
	.byte 'I,54
	.byte 0,6
	.byte 'I,'I
	.byte 41,30
	.byte 0,0
	.byte 54,54
	.byte 0,0
	.byte 0,0
	.byte 'V,54
	.byte 0,0
	.byte 0,8
	.byte 20,34
	.byte 'A,0
	.byte 0,20
	.byte 20,20
	.byte 20,20
	.byte 0,0
	.byte 'A,34
	.byte 20,8
	.byte 0,2
	.byte 1,'Q
	.byte 9,6
	.byte 0,50
	.byte 'I,'y
	.byte 'A,62
	.byte 0,126
	.byte 17,17
	.byte 17,126
	.byte 0,127
	.byte 'I,'I
	.byte 'I,62
	.byte 0,62
	.byte 'A,'A
	.byte 'A,34
	.byte 0,127
	.byte 'A,'A
	.byte 34,28
	.byte 0,127
	.byte 'I,'I
	.byte 'I,'A
	.byte 0,127
	.byte 9,9
	.byte 9,1
	.byte 0,62
	.byte 'A,'I
	.byte 'I,'z
	.byte 0,127
	.byte 8,8
	.byte 8,127
	.byte 0,0
	.byte 'A,127
	.byte 'A,0
	.byte 0,32
	.byte 64,'A
	.byte 63,1
	.byte 0,127
	.byte 8,20
	.byte 34,'A
	.byte 0,127
	.byte 64,64
	.byte 64,64
	.byte 0,127
	.byte 2,4
	.byte 2,127
	.byte 0,127
	.byte 4,8
	.byte 16,127
	.byte 0,62
	.byte 'A,'A
	.byte 'A,62
	.byte 0,127
	.byte 9,9
	.byte 9,6
	.byte 0,62
	.byte 'A,'Q
	.byte 33,94
	.byte 0,127
	.byte 9,25
	.byte 41,'F
	.byte 0,'F
	.byte 'I,'I
	.byte 'I,49
	.byte 0,1
	.byte 1,127
	.byte 1,1
	.byte 0,63
	.byte 64,64
	.byte 64,63
	.byte 0,31
	.byte 32,64
	.byte 32,31
	.byte 0,63
	.byte 64,56
	.byte 64,63
	.byte 0,'c
	.byte 20,8
	.byte 20,'c
	.byte 0,3
	.byte 4,'x
	.byte 4,3
	.byte 0,'a
	.byte 'Q,'I
	.byte 'E,'C
	.byte 0,0
	.byte 127,'A
	.byte 'A,0
	.byte 0,21
	.byte 22,124
	.byte 22,21
	.byte 0,0
	.byte 'A,'A
	.byte 127,0
	.byte 0,4
	.byte 2,1
	.byte 2,4
	.byte 0,64
	.byte 64,64
	.byte 64,64
	.byte 0,0
	.byte 1,2
	.byte 4,0
	.byte 0,32
	.byte 'T,'T
	.byte 'T,'x
	.byte 0,127
	.byte 'H,'D
	.byte 'D,56
	.byte 0,56
	.byte 'D,'D
	.byte 'D,32
	.byte 0,56
	.byte 'D,'D
	.byte 'H,127
	.byte 0,56
	.byte 'T,'T
	.byte 'T,24
	.byte 0,8
	.byte 126,9
	.byte 1,2
	.byte 0,12
	.byte 'R,'R
	.byte 'R,62
	.byte 0,127
	.byte 8,4
	.byte 4,'x
	.byte 0,0
	.byte 'D,125
	.byte 64,0
	.byte 0,32
	.byte 64,'D
	.byte 61,0
	.byte 0,127
	.byte 16,40
	.byte 'D,0
	.byte 0,0
	.byte 'A,127
	.byte 64,0
	.byte 0,126
	.byte 2,12
	.byte 2,124
	.byte 0,126
	.byte 4,2
	.byte 2,124
	.byte 0,56
	.byte 'D,'D
	.byte 'D,56
	.byte 0,124
	.byte 20,20
	.byte 20,8
	.byte 0,8
	.byte 20,20
	.byte 24,124
	.byte 0,124
	.byte 8,4
	.byte 4,8
	.byte 0,'H
	.byte 'T,'T
	.byte 'T,32
	.byte 0,4
	.byte 63,'D
	.byte 64,32
	.byte 0,60
	.byte 64,64
	.byte 32,124
	.byte 0,28
	.byte 32,64
	.byte 32,28
	.byte 0,60
	.byte 64,48
	.byte 64,60
	.byte 0,'D
	.byte 40,16
	.byte 40,'D
	.byte 0,12
	.byte 'P,'P
	.byte 'P,60
	.byte 0,'D
	.byte 'd,'T
	.byte 'L,'D
	.byte 0,0
	.byte 8,54
	.byte 'A,0
	.byte 0,0
	.byte 0,127
	.byte 0,0
	.byte 0,0
	.byte 'A,54
	.byte 8,0
	.byte 0,8
	.byte 4,8
	.byte 16,8
	.byte 0,8
	.byte 8,42
	.byte 28,8
	.byte 0,8
	.byte 28,42
	.byte 8,8
	.byte 0,4
	.byte 2,127
	.byte 2,4
	.byte 0,16
	.byte 32,127
	.byte 32,16
	.byte 0,28
	.byte 42,50
	.byte 42,28
	.byte 0,28
	.byte 34,'D
	.byte 34,28
	.dbfile F:\工程\LCD5110\My_Nokia5510_LCD\程序\AVR\LCD5510(ICCAVR_M8)/Font_ASCII_code.C
	.dbsym e Font_code _Font_code A[606:101:6]kc
_GB_16::
	.byte 206,210
	.byte 32,36
	.byte 36,36
	.byte 254,35
	.byte 34,32
	.byte 255,32
	.byte 34,172
	.byte 32,48
	.byte 32,0
	.byte 0,8
	.byte 'H,132
	.byte 127,2
	.byte 33,16
	.byte 9,6
	.byte 26,'a
	.byte 128,224
	.byte 0,0
	.byte 208,196
	.byte 0,0
	.byte 192,0
	.byte 240,0
	.byte 1,2
	.byte 28,8
	.byte 0,0
	.byte 64,128
	.byte 0,0
	.byte 4,2
	.byte 1,0
	.byte 63,64
	.byte 64,64
	.byte 64,64
	.byte 64,'p
	.byte 0,0
	.byte 7,0
	.byte 211,192
	.byte 0,64
	.byte 64,'H
	.byte 'H,200
	.byte 9,250
	.byte 64,128
	.byte 64,32
	.byte 48,0
	.byte 0,0
	.byte 0,32
	.byte 16,8
	.byte 6,'A
	.byte 128,127
	.byte 0,1
	.byte 6,8
	.byte 16,48
	.byte 16,0
	.byte 186,227
	.byte 128,'p
	.byte 0,255
	.byte 16,34
	.byte 242,146
	.byte 146,146
	.byte 146,146
	.byte 251,18
	.byte 0,0
	.byte 0,0
	.byte 0,255
	.byte 32,32
	.byte 39,36
	.byte 36,36
	.byte 36,36
	.byte 39,48
	.byte 32,0
	.byte 214,174
	.byte 0,16
	.byte 16,16
	.byte 16,16
	.byte 17,22
	.byte 16,144
	.byte 'P,48
	.byte 16,0
	.byte 0,0
	.byte 0,32
	.byte 16,16
	.byte 40,'H
	.byte 'D,'B
	.byte 'A,64
	.byte 64,64
	.byte 64,96
	.byte 32,0
	.byte 161,239
	.byte 0,32
	.byte 96,224
	.byte 224,224
	.byte 240,252
	.byte 255,252
	.byte 240,224
	.byte 224,224
	.byte 96,32
	.byte 0,0
	.byte 64,48
	.byte 61,31
	.byte 31,15
	.byte 7,15
	.byte 31,31
	.byte 61,48
	.byte 64,0
	.dbfile F:\工程\LCD5110\My_Nokia5510_LCD\程序\AVR\LCD5510(ICCAVR_M8)/Font_GBK_code.c
	.dbstruct 0 34 typFNT_GB16
	.dbfield 0 Index A[2:2]C
	.dbfield 2 Msk A[32:32]c
	.dbend
	.dbsym e GB_16 _GB_16 A[204:6]kS[typFNT_GB16]
	.area text(rom, con, rel)
	.dbfile F:\工程\LCD5110\My_Nokia5510_LCD\程序\AVR\LCD5510(ICCAVR_M8)/Font_GBK_code.c
	.dbfile F:\工程\LCD5110\My_Nokia5510_LCD\程序\AVR\LCD5510(ICCAVR_M8)/LCD5510_V3.C
	.dbfunc e LCD_write_byte _LCD_write_byte fV
;              i -> R20
;        dat_cmd -> R18
;          wbyte -> R16
	.even
_LCD_write_byte::
	rcall push_gset1
	.dbline -1
	.dbline 7
; /*--------------------------------------------------------------*/
; //ICC-AVR application builder : 2009-8-5 18:01:10
; // Target : M8
; // Crystal: 1.000Mhz
; /*--------------------------------------------------------------*/
; 
; 
	.dbline 10
; /*--------------------------------------------------------------*/
; //包含头文件
; #include <iom8v.h>
	in R24,0x15
	andi R24,247
	out 0x15,R24
	.dbline 11
; #include <macros.h>
	mov R24,R18
	andi R24,1
	lsl R24
	lsl R24
	andi R24,4
	in R25,0x15
	andi R25,251
	or R25,R24
	out 0x15,R25
	.dbline 13
; #include "ICCAVRIO.H"		//AVR IO口位操作
; #include "LCD5510_V3.H"
	ldi R20,8
	rjmp L6
L3:
	.dbline 14
; 
	.dbline 15
; 
	sbrs R16,7
	rjmp L7
	.dbline 15
	.dbline 15
	in R24,0x15
	ori R24,2
	out 0x15,R24
	.dbline 15
	rjmp L8
L7:
	.dbline 16
; /*--------------------------------------------------------------*/
	.dbline 16
	in R24,0x15
	andi R24,253
	out 0x15,R24
	.dbline 16
L8:
	.dbline 18
	in R24,0x15
	andi R24,254
	out 0x15,R24
	.dbline 19
	lsl R16
	.dbline 20
	in R24,0x15
	ori R24,1
	out 0x15,R24
	.dbline 21
L4:
	.dbline 13
	dec R20
L6:
	.dbline 13
	tst R20
	brne L3
	.dbline 23
; const unsigned char *str1 = {"Nokia 5510 Test, Haha ^_^ I am so glad to see you agian! Do you think so?"};
; const unsigned char *str2 = {"I Love You AVR"};
; const unsigned char pic[] = 
; {//84*48
; 0x00,0x00,0x00,0x00,0x00,0x00,0x00,0x00,0x00,0x00,0x00,0x00,0x00,0x00,0x00,0x00,
; 0x00,0x00,0x20,0x20,0xC0,0x70,0x20,0x30,0x20,0x40,0x80,0xC0,0x40,0x20,0x30,0x20,
; 0x20,0x20,0x50,0xC0,0x80,0x20,0x20,0x00,0x00,0x00,0x00,0x00,0x00,0x00,0x00,0x00,
	in R24,0x15
	ori R24,8
	out 0x15,R24
	.dbline -2
L2:
	rcall pop_gset1
	.dbline 0 ; func end
	ret
	.dbsym r i 20 c
	.dbsym r dat_cmd 18 c
	.dbsym r wbyte 16 c
	.dbend
	.dbfunc e LCD_clr_scr _LCD_clr_scr fV
;              i -> R20,R21
	.even
_LCD_clr_scr::
	rcall push_gset1
	.dbline -1
	.dbline 60
; 0x00,0x00,0x00,0x00,0x00,0x00,0x00,0x00,0x00,0x00,0x00,0x00,0x00,0x00,0x00,0x00,
; 0x00,0x80,0xC0,0x40,0x40,0x80,0xC0,0x40,0xA0,0x60,0xB0,0xB0,0xD0,0xF0,0x70,0xF0,
; 0xB0,0x60,0xA0,0x60,0x00,0x00,0x00,0xC0,0x60,0x30,0x18,0x0C,0x04,0x06,0x82,0x46,
; 0x02,0xE2,0x02,0x02,0x02,0x06,0x06,0x8F,0x8C,0x8F,0x9F,0xB0,0x30,0x74,0x63,0xC0,
; 0x8E,0x0F,0x0E,0x00,0x00,0x00,0x80,0x80,0xE3,0x1C,0x00,0x00,0x00,0x00,0x00,0x00,
; 0x00,0x00,0x00,0x00,0x00,0x00,0x00,0x00,0x00,0x00,0x00,0x00,0x00,0x00,0x00,0x00,
; 0x00,0x00,0x00,0x00,0x40,0xB8,0x44,0xE2,0x43,0x03,0x06,0xF8,0x45,0xF2,0x1C,0xC7,
; 0xE2,0x02,0x03,0x02,0x0D,0x3A,0xC5,0x5A,0x00,0x00,0x3F,0xF7,0xC0,0x00,0x00,0x00,
; 0x3C,0xC2,0x3D,0xC2,0x15,0x40,0x00,0x00,0x00,0x00,0x02,0x03,0x05,0x05,0x07,0x01,
; 0x06,0x01,0x00,0x00,0x00,0x01,0x03,0x03,0x05,0x0B,0x21,0x9E,0x21,0xDF,0x2C,0xF8,
; 0xC0,0x00,0x00,0x00,0x00,0x00,0x00,0x00,0x00,0x00,0x00,0x00,0x00,0x00,0x00,0x00,
; 0x00,0x00,0x00,0xC0,0x20,0xD0,0xF8,0x90,0x9C,0x97,0x92,0xF4,0xF4,0x0E,0xA2,0x55,
; 0xAA,0x03,0x5E,0xA8,0x11,0x50,0xB0,0x58,0xAC,0x07,0x79,0x86,0x00,0x00,0x00,0x01,
; 0x03,0x07,0x0E,0xAC,0xFC,0x59,0xBA,0xF1,0xB6,0x35,0x32,0x34,0xE8,0x30,0x60,0x20,
; 0x20,0x20,0x30,0xE0,0x30,0x10,0x10,0x18,0x88,0x6C,0x1E,0x03,0x00,0x00,0x01,0xA2,
; 0x14,0xEA,0x15,0xEA,0xFF,0x00,0x00,0x00,0x00,0x00,0x00,0x00,0x00,0x00,0x00,0x00,
; 0x00,0x00,0x00,0x00,0x00,0x00,0x3F,0xFD,0xA2,0x5D,0xA2,0xFF,0x95,0x6B,0x95,0x69,
; 0x86,0x58,0xA2,0x55,0xAA,0x40,0xB5,0x4A,0xA0,0x55,0xAA,0xD4,0xA9,0x56,0xA9,0x56,
; 0x00,0x00,0x00,0x00,0x00,0x00,0x00,0x00,0x03,0x0E,0x0D,0x3A,0x35,0x6B,0xD6,0xEC,
; 0x9D,0xEE,0x18,0xE8,0x18,0xE0,0x1C,0xE7,0x14,0xEA,0x96,0xE1,0xD1,0xA8,0xE0,0xE8,
; 0xF4,0x2A,0x39,0x1A,0x1D,0x0E,0x07,0x03,0x00,0x00,0x00,0x00,0x00,0x00,0x00,0x00,
; 0x00,0x00,0x00,0x00,0x00,0x00,0x00,0x00,0x00,0x00,0x00,0x00,0x01,0x03,0x07,0x06,
; 0x3F,0x7D,0xFE,0xF9,0xBE,0x39,0x1E,0xBD,0xFC,0x7F,0x3C,0x77,0xCE,0x77,0x8B,0x75,
; 0x8A,0x75,0x8A,0xF5,0x00,0x00,0x00,0x00,0x00,0x00,0x00,0x00,0x00,0x00,0x00,0x00,
; 0x00,0x00,0x00,0x00,0x01,0x01,0x01,0x03,0x0B,0x0F,0x03,0x0D,0x03,0x0C,0x03,0x0C,
; 0x03,0x0C,0x03,0x0D,0x03,0x0F,0x0E,0x0C,0x00,0x00,0x00,0x00,0x00,0x00,0x00,0x00,
; 0x00,0x00,0x00,0x00,0x00,0x00,0x00,0x00,0x00,0x00,0x00,0x00,0x00,0x00,0x00,0x00,
; 0x00,0x00,0x00,0x00,0x00,0x00,0x00,0x01,0x00,0x01,0x01,0x00,0x00,0x00,0x00,0x08,
; 0x0F,0x05,0x0A,0x05,0x0A,0x05,0x0A,0x07,//d:\我的文档\桌面\2009-08-05_100029.bmp0
; };
; 
; const unsigned char pic1[] = {//72*14
; 0x1C,0x08,0xFE,0x08,0x08,0xFA,0xAF,0xFA,0x08,0x00,0x00,0x00,0x80,0x7C,0x80,0x00,
; 0x00,0x00,0x94,0x56,0x3C,0xD4,0x00,0x38,0x28,0x38,0x00,0x00,0xF4,0x94,0x94,0xDC,
; 0x00,0x00,0x00,0x00,0xC1,0xFF,0xFC,0x8D,0x3D,0x78,0x00,0x00,0x00,0x00,0x01,0x01,
; 0x09,0x05,0x1D,0x3D,0x7D,0x7F,0x1B,0x0B,0x83,0xFF,0x7F,0x3F,0x8F,0x87,0x03,0x83,
; 0xFF,0xFF,0xFF,0xFF,0xFF,0x0F,0x00,0x00,0x28,0x28,0x28,0x28,0x28,0x29,0x28,0x2B,
	.dbline 63
; 0x28,0x28,0x29,0x29,0x28,0x28,0x28,0x29,0x28,0x28,0x28,0x28,0x20,0x04,0x0A,0x12,
; 0x24,0x12,0x0A,0x24,0x20,0x28,0x28,0x00,0x10,0x18,0x3C,0x3F,0x3F,0x3F,0x3F,0x3F,
; 0x38,0x20,0x00,0x03,0x30,0x30,0x20,0x10,0x00,0x00,0x00,0x00,0x00,0x00,0x00,0x02,
	clr R18
	ldi R16,128
	rcall _LCD_write_byte
	.dbline 64
; 0x21,0x30,0x38,0x3F,0x3C,0x3C,0x3F,0x3F,0x3F,0x3F,0x3F,0x0F,0x21,0x28,0x28,0x28};
	clr R18
	ldi R16,64
	rcall _LCD_write_byte
	.dbline 66
	ldi R20,504
	ldi R21,1
	rjmp L13
L10:
	.dbline 66
	ldi R18,1
	clr R16
	rcall _LCD_write_byte
L11:
	.dbline 66
	subi R20,1
	sbci R21,0
L13:
	.dbline 66
; //F:\学习\单片机\单片机工具\取字模软件\BMP图片\收藏\6.bmp0
; 
	cpi R20,0
	cpc R20,R21
	brne L10
X0:
	.dbline -2
L9:
	rcall pop_gset1
	.dbline 0 ; func end
	ret
	.dbsym r i 20 i
	.dbend
	.dbfunc e LCD_clr_row _LCD_clr_row fV
;              i -> R20
;            num -> R20
	.even
_LCD_clr_row::
	rcall push_gset1
	mov R20,R16
	.dbline -1
	.dbline 74
; const unsigned char pic2[] = {//72*28
; 0xFF,0x4D,0x43,0x41,0x41,0x41,0x41,0x41,0x01,0x01,0x03,0x05,0x0B,0x17,0x1F,0x1D,
; 0x13,0x15,0xBB,0xF5,0xEB,0xD5,0xAB,0xF5,0xEB,0xD5,0xAB,0xD5,0xAB,0xD5,0xAB,0x55,
; 0x2B,0x77,0xBF,0x00,0x14,0x14,0x94,0xFC,0x92,0x50,0xFE,0x10,0x92,0x54,0x10,0x00,
; 0x00,0xE0,0x00,0xF8,0x00,0x02,0x1C,0x00,0x00,0x60,0x80,0x00,0x00,0x70,0xF0,0xF0,
; 0xE0,0xC0,0xE0,0xF0,0xF0,0x70,0x00,0x00,0xFF,0x46,0x0F,0xDF,0xAF,0x47,0xAF,0x1E,
; 0x18,0x00,0x00,0x00,0x00,0x00,0x00,0x00,0x00,0x08,0x0E,0x0C,0xEE,0x46,0x86,0x56,
; 0xBE,0x5C,0x38,0x00,0x06,0x09,0xC8,0x18,0xEC,0x55,0xAA,0x00,0x01,0x89,0x88,0x8F,
	.dbline 77
; 0x84,0x84,0x82,0x83,0x84,0x88,0x0E,0x00,0x01,0x80,0x80,0x8F,0x88,0x88,0x88,0x88,
; 0x8F,0x80,0x01,0x00,0x00,0x00,0x00,0x81,0x03,0x07,0x83,0x01,0x00,0x00,0x00,0x00,
; 0xFF,0x55,0xBE,0xE0,0x81,0x01,0x01,0x01,0x00,0x00,0x06,0x08,0x40,0x40,0x40,0x40,
	mov R18,R20
	clr R16
	rcall _LCD_pos_byte
	.dbline 78
	ldi R20,84
	rjmp L18
L15:
	.dbline 78
	ldi R18,1
	clr R16
	rcall _LCD_write_byte
L16:
	.dbline 78
	dec R20
L18:
	.dbline 78
; 0x40,0x00,0x00,0x00,0x01,0x03,0x03,0x03,0x02,0x81,0x40,0x20,0x10,0xFC,0xA9,0x58,
	tst R20
	brne L15
	.dbline -2
L14:
	rcall pop_gset1
	.dbline 0 ; func end
	ret
	.dbsym r i 20 c
	.dbsym r num 20 c
	.dbend
	.dbfunc e LCD_pos_byte _LCD_pos_byte fV
;              y -> R20
;              x -> R22
	.even
_LCD_pos_byte::
	rcall push_gset2
	mov R20,R18
	mov R22,R16
	.dbline -1
	.dbline 88
; 0xAB,0x55,0xAA,0x00,0x00,0xFF,0x02,0xBA,0xAA,0xAA,0xFE,0xAA,0xAA,0xBB,0x80,0x00,
; 0x08,0x08,0x08,0x08,0x08,0xFF,0x08,0x08,0x08,0x08,0x08,0x00,0x08,0x04,0xFE,0x89,
; 0x44,0x33,0x02,0xFA,0x02,0x32,0xC6,0x00,0x0F,0x05,0x0A,0x0F,0x0A,0x05,0x0A,0x0C,
; 0x08,0x00,0x00,0x00,0x00,0x00,0x00,0x00,0x00,0x00,0x08,0x08,0x04,0x04,0x02,0x02,
; 0x01,0x00,0x00,0x00,0x00,0x0F,0x0A,0x05,0x0A,0x05,0x0A,0x00,0x03,0x00,0x00,0x03,
; 0x00,0x02,0x03,0x02,0x00,0x02,0x03,0x00,0x00,0x00,0x00,0x02,0x02,0x03,0x00,0x00,
; 0x00,0x00,0x00,0x00,0x00,0x00,0x03,0x00,0x00,0x02,0x02,0x03,0x00,0x00,0x00,0x00};
; //F:\学习\单片机\单片机工具\取字模软件\BMP图片\收藏\1040699005093204[1].bmp0
; 
; 
	.dbline 89
; /*--------------------------------------------------------------*/
	ori R22,128
	.dbline 90
; //延时50000+7us 函数定义
	ori R20,64
	.dbline 91
; void delay50ms(void)
	clr R18
	mov R16,R22
	rcall _LCD_write_byte
	.dbline 92
; {
	clr R18
	mov R16,R20
	rcall _LCD_write_byte
	.dbline -2
L19:
	rcall pop_gset2
	.dbline 0 ; func end
	ret
	.dbsym r y 20 c
	.dbsym r x 22 c
	.dbend
	.dbfunc e LCD_printc _LCD_printc fV
;              i -> R20
;          c_dat -> R22
;              y -> R10
;              x -> R20
	.even
_LCD_printc::
	rcall push_gset3
	mov R10,R18
	mov R20,R16
	ldd R22,y+6
	.dbline -1
	.dbline 101
; 	unsigned char i, j = 50;
; 	do{i = 249; do{i--;}while(i); j--;}while(j);
; }
; 
; //延时200000-1us 函数定义
; void delay200ms(void)
; {
; 	unsigned char x, y, z = 78;
; 	do{y = 160; do{x = 3; do{x--;}while(x); y--;}while(y); z--;}while(z);
	.dbline 104
; }
; 
; 
	subi R22,32
	.dbline 105
; //延时1000000-1us 函数定义
	ldi R24,6
	mul R24,R20
	mov R20,R0
	.dbline 107
; void delay1s(void)
; {
	mov R18,R10
	mov R16,R20
	rcall _LCD_pos_byte
	.dbline 108
	clr R20
	rjmp L24
L21:
	.dbline 108
	ldi R18,1
	ldi R24,6
	mul R24,R22
	movw R2,R0
	ldi R24,<_Font_code
	ldi R25,>_Font_code
	add R2,R24
	adc R3,R25
	mov R30,R20
	clr R31
	add R30,R2
	adc R31,R3
	lpm R16,Z
	rcall _LCD_write_byte
L22:
	.dbline 108
	inc R20
L24:
	.dbline 108
; 	unsigned char x, y, z = 98;
	cpi R20,6
	brlo L21
	.dbline -2
L20:
	rcall pop_gset3
	.dbline 0 ; func end
	ret
	.dbsym r i 20 c
	.dbsym r c_dat 22 c
	.dbsym r y 10 c
	.dbsym r x 20 c
	.dbend
	.dbfunc e LCD_prints _LCD_prints fV
;          s_dat -> R20,R21
;              y -> R22
;              x -> R10
	.even
_LCD_prints::
	rcall push_gset3
	mov R22,R18
	mov R10,R16
	sbiw R28,1
	ldd R20,y+7
	ldd R21,y+8
	.dbline -1
	.dbline 117
; 	do{y = 255; do{x = 9; do{x--;}while(x); y--;}while(y); z--;}while(z);
; }
; 
; 
; /*--------------------------------------------------------------*/
; //主函数
; void main(void)
; {
; 	unsigned char i = 0, j = 0, k = 0;
	rjmp L27
L26:
	.dbline 118
	.dbline 118
	movw R30,R20
	lpm R30,Z
	std y+0,R30
	mov R18,R22
	mov R2,R10
	mov R24,R2
	subi R24,255    ; addi 1
	mov R10,R24
	mov R16,R2
	rcall _LCD_printc
	.dbline 118
	subi R20,255  ; offset = 1
	sbci R21,255
	.dbline 118
L27:
	.dbline 118
	movw R30,R20
	lpm R30,Z
	tst R30
	breq L29
	mov R24,R10
	cpi R24,14
	brlo L26
L29:
	.dbline -2
L25:
	adiw R28,1
	rcall pop_gset3
	.dbline 0 ; func end
	ret
	.dbsym r s_dat 20 pkc
	.dbsym r y 22 c
	.dbsym r x 10 c
	.dbend
	.dbfunc e LCD_prints_ram _LCD_prints_ram fV
;          s_dat -> R20,R21
;              y -> R22
;              x -> R10
	.even
_LCD_prints_ram::
	rcall push_gset3
	mov R22,R18
	mov R10,R16
	sbiw R28,1
	ldd R20,y+7
	ldd R21,y+8
	.dbline -1
	.dbline 127
; 	unsigned char LCD_contrast = 0xc8;	//此值对比度合适
; 
; 	LCD5510_Init();
; 
; 	LCD_prints(0, 3, ">>>Welcome<<<");
; 	delay1s();	delay1s();
;  
; 	while(*str1)
; 	{
; 		LCD_prints(0, 0, str1++); 
	rjmp L32
L31:
	.dbline 128
	.dbline 128
	movw R30,R20
	ldd R2,z+0
	std y+0,R2
	mov R18,R22
	mov R2,R10
	mov R24,R2
	subi R24,255    ; addi 1
	mov R10,R24
	mov R16,R2
	rcall _LCD_printc
	.dbline 128
	subi R20,255  ; offset = 1
	sbci R21,255
	.dbline 128
L32:
	.dbline 128
	movw R30,R20
	ldd R2,z+0
	tst R2
	breq L34
	mov R24,R10
	cpi R24,14
	brlo L31
L34:
	.dbline -2
L30:
	adiw R28,1
	rcall pop_gset3
	.dbline 0 ; func end
	ret
	.dbsym r s_dat 20 pc
	.dbsym r y 22 c
	.dbsym r x 10 c
	.dbend
	.dbfunc e LCD_printsl _LCD_printsl fV
;          s_dat -> R20,R21
;              y -> R22
;              x -> R10
	.even
_LCD_printsl::
	rcall push_gset3
	mov R22,R18
	mov R10,R16
	sbiw R28,1
	ldd R20,y+7
	ldd R21,y+8
	.dbline -1
	.dbline 137
; 		delay200ms(); i++;
; 		LCD_clr_row(0);
; 	}
; 	str1 -= i;
; 	LCD_printsl(0, 0, str1);
; 	delay1s();
; 	
; 	LCD_clr_scr();		//清屏
; 	delay1s();
; 	LCD_picture(pic);
	rjmp L37
L36:
	.dbline 139
; 	delay1s();	delay1s(); 
; 	
	.dbline 140
; 	LCD_clr_scr();		//清屏
	movw R30,R20
	lpm R30,Z
	std y+0,R30
	mov R18,R22
	mov R2,R10
	mov R24,R2
	subi R24,255    ; addi 1
	mov R10,R24
	mov R16,R2
	rcall _LCD_printc
	.dbline 141
; 	delay1s();
	subi R20,255  ; offset = 1
	sbci R21,255
	.dbline 142
; 	LCD_pos_picture(0, 0, 72, 14, pic1);	
	mov R24,R10
	cpi R24,14
	brne L39
	.dbline 142
	.dbline 142
	clr R10
	.dbline 142
	inc R22
	.dbline 142
L39:
	.dbline 143
; 	delay1s();	
	cpi R22,6
	brne L41
	.dbline 143
	.dbline 143
	clr R22
	.dbline 143
L41:
	.dbline 144
L37:
	.dbline 138
	movw R30,R20
	lpm R30,Z
	tst R30
	brne L36
	.dbline -2
L35:
	adiw R28,1
	rcall pop_gset3
	.dbline 0 ; func end
	ret
	.dbsym r s_dat 20 pkc
	.dbsym r y 22 c
	.dbsym r x 10 c
	.dbend
	.dbfunc e LCD_printch _LCD_printch fV
;              j -> R20
;              i -> R14
;          h_dat -> R10,R11
;              y -> R12
;              x -> R22
	.even
_LCD_printch::
	rcall push_gset5
	mov R12,R18
	mov R22,R16
	ldd R10,y+10
	ldd R11,y+11
	.dbline -1
	.dbline 154
; 	LCD_pos_picture(0, 2, 72, 28, pic2);
; 	delay1s(); delay1s();
; 	LCD_clr_scr();		//清屏
; 	LCD_showsh(0, 0, "我心★永恒");
; 	delay1s();
; 	LCD_showsh(0, 1, "永恒★我心");
; 	delay1s();
; 	LCD_showsh(0, 2, "永恒之心★");
; 	delay1s(); delay1s();
; 	
; 	
	.dbline 157
; 	
; 	LCD_clr_scr();		//清屏
; 	for(i = 0; i < 14; i++) {LCD_printc(i, 2, str2[i]); delay200ms();}
	mov R24,R22
	andi R24,#0x0F
	swap R24
	mov R22,R24
	.dbline 158
; 	LCD_printn(2, 3, 13140, 5);
	lsl R12
	.dbline 159
; 	delay1s();
	clr R20
	rjmp L47
L44:
	.dbline 160
; 	LCD_prints(0, 4, ">--(*^_^*)--<");
	.dbline 161
; 	delay1s();
	mov R18,R12
	add R18,R20
	mov R16,R22
	rcall _LCD_pos_byte
	.dbline 162
	clr R14
	rjmp L51
L48:
	.dbline 162
	ldi R18,1
	ldi R24,16
	mul R24,R20
	movw R30,R0
	mov R2,R14
	clr R3
	add R30,R2
	adc R31,R3
	add R30,R10
	adc R31,R11
	lpm R16,Z
	rcall _LCD_write_byte
L49:
	.dbline 162
	inc R14
L51:
	.dbline 162
	mov R24,R14
	cpi R24,16
	brlo L48
	.dbline 163
L45:
	.dbline 159
	inc R20
L47:
	.dbline 159
	cpi R20,2
	brlo L44
	.dbline -2
L43:
	rcall pop_gset5
	.dbline 0 ; func end
	ret
	.dbsym r j 20 c
	.dbsym r i 14 c
	.dbsym r h_dat 10 pkc
	.dbsym r y 12 c
	.dbsym r x 22 c
	.dbend
	.dbfunc e LCD_showch _LCD_showch fV
;              i -> R10
;            dat -> R12,R13
;              y -> R22
;              x -> R20
	.even
_LCD_showch::
	rcall push_gset4
	mov R22,R18
	mov R20,R16
	sbiw R28,2
	ldd R12,y+10
	ldd R13,y+11
	.dbline -1
	.dbline 174
; 
; 
; 	LCD_prints(0, 0, "Blank Test ");
; 	delay1s();
; 	LCD_show_blank;		//空白测试
; 	delay1s();
; 	LCD_prints(0, 0, "Normal Test");
; 	LCD_show_normal;	//恢复正常
; 	delay1s();
; 	LCD_prints(0, 0, "Black Test ");
; 	delay1s();
; 	LCD_show_black;		//全黑检测坏点
; 	delay1s();
	.dbline 177
; 	LCD_show_normal;	//恢复正常
; 	delay1s();
; 	LCD_prints(0, 0, "Inverse Test");
	clr R10
	rjmp L56
L53:
	.dbline 178
; 	LCD_show_inverse;	//反色
	.dbline 179
; 	delay1s();
	ldi R24,34
	mul R24,R10
	movw R2,R0
	ldi R24,<_GB_16
	ldi R25,>_GB_16
	movw R30,R2
	add R30,R24
	adc R31,R25
	lpm R30,Z
	movw R26,R12
	st -y,R31
	st -y,R30
	movw R30,R26
	lpm R26,Z
	ld R30,y+
	ld R31,y+
	cp R30,R26
	brne L57
	ldi R24,<_GB_16+1
	ldi R25,>_GB_16+1
	movw R30,R2
	add R30,R24
	adc R31,R25
	lpm R30,Z
	movw R26,R12
	adiw R26,1
	st -y,R31
	st -y,R30
	movw R30,R26
	lpm R26,Z
	ld R30,y+
	ld R31,y+
	cp R30,R26
	brne L57
	.dbline 179
	rjmp L55
L57:
	.dbline 180
L54:
	.dbline 177
	inc R10
L56:
	.dbline 177
	mov R24,R10
	cpi R24,6
	brlo L53
L55:
	.dbline 181
; 	LCD_prints(0, 0, "Normal again");
; 	LCD_show_normal;	//恢复正常
	ldi R24,34
	mul R24,R10
	movw R2,R0
	ldi R24,<_GB_16+2
	ldi R25,>_GB_16+2
	add R2,R24
	adc R3,R25
	std y+1,R3
	std y+0,R2
	mov R18,R22
	mov R16,R20
	rcall _LCD_printch
	.dbline -2
L52:
	adiw R28,2
	rcall pop_gset4
	.dbline 0 ; func end
	ret
	.dbsym r i 10 c
	.dbsym r dat 12 pkc
	.dbsym r y 22 c
	.dbsym r x 20 c
	.dbend
	.dbfunc e LCD_showsh _LCD_showsh fV
;            dat -> R20,R21
;              y -> R22
;              x -> R10
	.even
_LCD_showsh::
	rcall push_gset3
	mov R22,R18
	mov R10,R16
	sbiw R28,2
	ldd R20,y+8
	ldd R21,y+9
	.dbline -1
	.dbline 193
; 	delay1s();
; 	LCD_clr_scr();		//清屏
; 	delay1s();
; 	
; 	
; 	i = 0; j = 0; k = 0;
; 	LCD_prints(0, 5, "ASCII Code:"); 
; 	while(k++ < 100)	//ASCII字符测试
; 	{ 
; 		LCD_printc(i, j, k + 32); 
; 		delay50ms(); 
; 		i++; if(i == 14) {i = 0; j++;}
	rjmp L63
L62:
	.dbline 194
	.dbline 194
	std y+1,R21
	std y+0,R20
	mov R18,R22
	mov R2,R10
	mov R24,R2
	subi R24,255    ; addi 1
	mov R10,R24
	mov R16,R2
	rcall _LCD_showch
	.dbline 194
	subi R20,254  ; offset = 2
	sbci R21,255
	.dbline 194
L63:
	.dbline 194
; 		if(j == 5) j = 0;
	movw R30,R20
	lpm R30,Z
	tst R30
	brne L62
	.dbline -2
L61:
	adiw R28,2
	rcall pop_gset3
	.dbline 0 ; func end
	ret
	.dbsym r dat 20 pkc
	.dbsym r y 22 c
	.dbsym r x 10 c
	.dbend
	.dbfunc e LCD_picture _LCD_picture fV
;              i -> R20,R21
;        img_dat -> R22,R23
	.even
_LCD_picture::
	rcall push_gset2
	movw R22,R16
	.dbline -1
	.dbline 202
; 		LCD_printn(11, 5, k + 32, 3); 		
; 	}
; 	delay1s();
; 	
; 	
; 	LCD_clr_scr();			//清屏
; 	LCD_prints(2, 0, "Nokia 5510");
; 	LCD_prints(2, 2, "Alexi2008");
	.dbline 205
	clr R20
	clr R21
	rjmp L69
L66:
	.dbline 205
	ldi R18,1
	movw R30,R20
	add R30,R22
	adc R31,R23
	lpm R16,Z
	rcall _LCD_write_byte
L67:
	.dbline 205
	subi R20,255  ; offset = 1
	sbci R21,255
L69:
	.dbline 205
; 	LCD_prints(0, 4, "LCD_Contrast:");
; 	while(1)				//对比度软件调节
; 	{
	cpi R20,248
	ldi R30,1
	cpc R21,R30
	brlo L66
	.dbline -2
L65:
	rcall pop_gset2
	.dbline 0 ; func end
	ret
	.dbsym r i 20 i
	.dbsym r img_dat 22 pkc
	.dbend
	.dbfunc e LCD_pos_picture _LCD_pos_picture fV
;              j -> R20
;              i -> R14
;        img_dat -> R22,R23
;              y -> R10
;              x -> R12
;            pag -> y+12
;            col -> y+10
	.even
_LCD_pos_picture::
	rcall push_arg4
	rcall push_gset5
	ldd R12,y+14
	ldd R10,y+16
	ldd R22,y+18
	ldd R23,y+19
	.dbline -1
	.dbline 217
; 		for(i = 0; i < 10; i++) 
; 		{
; 			LCD_contrast++; 
; 			LCD_write_cmd(0x21);//工作模式, 水平寻址, 扩展指令
; 			LCD_write_cmd(LCD_contrast);
; 			LCD_write_cmd(0x20);//工作模式, 水平寻址, 常规指令
; 			LCD_printc(13, 4, 129);
; 			LCD_printn(5, 5, LCD_contrast, 3); 
; 			delay200ms();
; 		}
; 		for(i = 0; i < 20; i++) 
; 		{
	.dbline 220
; 			LCD_contrast--; 
; 			LCD_write_cmd(0x21);//工作模式, 水平寻址, 扩展指令
; 			LCD_write_cmd(LCD_contrast);
	mov R24,R10
	subi R24,252    ; addi 4
	mov R10,R24
	lsr R10
	lsr R10
	lsr R10
	.dbline 221
; 			LCD_write_cmd(0x20);//工作模式, 水平寻址, 常规指令 
	clr R20
	rjmp L74
L71:
	.dbline 222
; 			LCD_printc(13, 4, 130);
	.dbline 223
; 			LCD_printn(5, 5, LCD_contrast, 3); 
	clr R14
	rjmp L78
L75:
	.dbline 224
	.dbline 225
	ldd R18,y+12
	add R18,R20
	ldd R16,y+10
	add R16,R14
	rcall _LCD_pos_byte
	.dbline 226
	ldi R18,1
	mul R20,R12
	movw R30,R0
	mov R2,R14
	clr R3
	add R30,R2
	adc R31,R3
	add R30,R22
	adc R31,R23
	lpm R16,Z
	rcall _LCD_write_byte
	.dbline 227
L76:
	.dbline 223
	inc R14
L78:
	.dbline 223
	cp R14,R12
	brlo L75
	.dbline 228
L72:
	.dbline 221
	inc R20
L74:
	.dbline 221
	cp R20,R10
	brlo L71
	.dbline -2
L70:
	rcall pop_gset5
	adiw R28,4
	.dbline 0 ; func end
	ret
	.dbsym r j 20 c
	.dbsym r i 14 c
	.dbsym r img_dat 22 pkc
	.dbsym r y 10 c
	.dbsym r x 12 c
	.dbsym l pag 12 c
	.dbsym l col 10 c
	.dbend
	.dbfunc e LCD_printn _LCD_printn fV
;             ii -> R14
;            dat -> y+1
;              i -> R20
;        num_bit -> R22
;            num -> R10,R11
;              y -> R12
;              x -> y+17
	.even
_LCD_printn::
	rcall push_arg4
	rcall push_gset5
	mov R12,R18
	sbiw R28,7
	ldd R10,y+21
	ldd R11,y+22
	ldd R22,y+23
	.dbline -1
	.dbline 239
; 			delay200ms();
; 		}
; 		for(i = 0; i < 10; i++) 
; 		{
; 			LCD_contrast++; 
; 			LCD_write_cmd(0x21);//工作模式, 水平寻址, 扩展指令
; 			LCD_write_cmd(LCD_contrast);
; 			LCD_write_cmd(0x20);//工作模式, 水平寻址, 常规指令
; 			LCD_printc(13, 4, 129);
; 			LCD_printn(5, 5, LCD_contrast, 3); 
; 			delay200ms();
; 		}
; 	}
; }
; 
; 
	.dbline 244
	clr R20
	rjmp L83
L80:
	.dbline 244
	movw R24,R28
	adiw R24,1
	mov R30,R20
	clr R31
	sbrc R30,7
	com R31
	add R30,R24
	adc R31,R25
	clr R2
	std z+0,R2
L81:
	.dbline 244
	inc R20
L83:
	.dbline 244
; 
; 
; 
; 
; 
	cpi R20,6
	brlt L80
	.dbline 245
; 
	clr R20
	rjmp L85
L84:
	.dbline 247
	.dbline 248
	ldi R18,10
	ldi R19,0
	movw R16,R10
	rcall mod16u
	movw R24,R28
	adiw R24,1
	mov R30,R20
	clr R31
	sbrc R30,7
	com R31
	add R30,R24
	adc R31,R25
	std z+0,R16
	.dbline 249
	ldi R18,10
	ldi R19,0
	movw R16,R10
	rcall div16u
	movw R10,R16
	.dbline 249
	inc R20
	.dbline 250
L85:
	.dbline 246
; 
	ldi R18,10
	ldi R19,0
	movw R16,R10
	rcall div16u
	cpi R16,0
	cpc R16,R17
	brne L84
X1:
	.dbline 251
; 
; 
; 
; 
; 
	movw R24,R28
	adiw R24,1
	mov R30,R20
	clr R31
	sbrc R30,7
	com R31
	add R30,R24
	adc R31,R25
	std z+0,R10
	.dbline 252
; 
	mov R14,R20
	.dbline 253
	rjmp L90
L87:
	.dbline 253
	movw R24,R28
	adiw R24,1
	mov R2,R20
	clr R3
	sbrc R2,7
	com R3
	add R2,R24
	adc R3,R25
	movw R30,R2
	ldd R24,z+0
	subi R24,208    ; addi 48
	std z+0,R24
L88:
	.dbline 253
	dec R20
L90:
	.dbline 253
; 
	cpi R20,0
	brge L87
	.dbline 254
; 
	clr R20
	rjmp L94
L91:
	.dbline 255
	ldi R24,32
	std y+0,R24
	mov R18,R12
	ldd R16,y+17
	add R16,R20
	rcall _LCD_printc
L92:
	.dbline 254
	inc R20
L94:
	.dbline 254
	cp R20,R22
	brlo L91
	.dbline 256
; 
; 
	mov R20,R14
	rjmp L98
L95:
	.dbline 257
	movw R24,R28
	adiw R24,1
	mov R30,R20
	clr R31
	sbrc R30,7
	com R31
	add R30,R24
	adc R31,R25
	ldd R2,z+0
	std y+0,R2
	mov R18,R12
	ldd R2,y+17
	mov R24,R2
	subi R24,255    ; addi 1
	std y+17,R24
	mov R16,R2
	rcall _LCD_printc
L96:
	.dbline 256
	dec R20
L98:
	.dbline 256
	cpi R20,0
	brge L95
	.dbline -2
L79:
	adiw R28,7
	rcall pop_gset5
	adiw R28,4
	.dbline 0 ; func end
	ret
	.dbsym r ii 14 c
	.dbsym l dat 1 A[6:6]c
	.dbsym r i 20 C
	.dbsym r num_bit 22 c
	.dbsym r num 10 i
	.dbsym r y 12 c
	.dbsym l x 17 c
	.dbend
	.dbfunc e LCD5510_Init _LCD5510_Init fV
	.even
_LCD5510_Init::
	.dbline -1
	.dbline 282
; 
; 
; 
; 
; 
; 
; 
; 
; 
; 
; 
; 
; 
; 
; 
; 
; 
; 
; 
; 
; 
; 
; 
; 
; 
; 
	.dbline 283
; 
	in R24,0x14
	ori R24,1
	out 0x14,R24
	.dbline 284
; 
	in R24,0x14
	ori R24,2
	out 0x14,R24
	.dbline 285
; 
	in R24,0x14
	ori R24,4
	out 0x14,R24
	.dbline 286
; 
	in R24,0x14
	ori R24,8
	out 0x14,R24
	.dbline 287
; 
	in R24,0x14
	ori R24,16
	out 0x14,R24
	.dbline 289
; 
; 
	in R24,0x15
	andi R24,239
	out 0x15,R24
	.dbline 289
	in R24,0x15
	ori R24,16
	out 0x15,R24
	.dbline 292
; 
; 
; 
	clr R18
	ldi R16,33
	rcall _LCD_write_byte
	.dbline 293
; 
	clr R18
	ldi R16,6
	rcall _LCD_write_byte
	.dbline 294
; 
	clr R18
	ldi R16,19
	rcall _LCD_write_byte
	.dbline 295
; 
	clr R18
	ldi R16,200
	rcall _LCD_write_byte
	.dbline 297
; 
; 
	clr R18
	ldi R16,32
	rcall _LCD_write_byte
	.dbline 298
; 
	clr R18
	ldi R16,12
	rcall _LCD_write_byte
	.dbline 299
; 
	clr R18
	ldi R16,64
	rcall _LCD_write_byte
	.dbline 300
; 
	clr R18
	ldi R16,128
	rcall _LCD_write_byte
	.dbline 301
; 
	rcall _LCD_clr_scr
	.dbline -2
L99:
	.dbline 0 ; func end
	ret
	.dbend
	.area data(ram, con, rel)
	.dbfile F:\工程\LCD5110\My_Nokia5510_LCD\程序\AVR\LCD5510(ICCAVR_M8)/LCD5510_V3.C
_str1::
	.blkw 1
	.area idata
	.word L100
	.area data(ram, con, rel)
	.dbfile F:\工程\LCD5110\My_Nokia5510_LCD\程序\AVR\LCD5510(ICCAVR_M8)/LCD5510_V3.C
	.dbfile F:\工程\LCD5110\My_Nokia5510_LCD\程序\AVR\LCD5510(ICCAVR_M8)\LCD5510_V3_Demo.C
	.dbsym e str1 _str1 pkc
_str2::
	.blkw 1
	.area idata
	.word L101
	.area data(ram, con, rel)
	.dbfile F:\工程\LCD5110\My_Nokia5510_LCD\程序\AVR\LCD5510(ICCAVR_M8)\LCD5510_V3_Demo.C
	.dbsym e str2 _str2 pkc
	.area lit(rom, con, rel)
_pic::
	.byte 0,0
	.byte 0,0
	.byte 0,0
	.byte 0,0
	.byte 0,0
	.byte 0,0
	.byte 0,0
	.byte 0,0
	.byte 0,0
	.byte 32,32
	.byte 192,'p
	.byte 32,48
	.byte 32,64
	.byte 128,192
	.byte 64,32
	.byte 48,32
	.byte 32,32
	.byte 'P,192
	.byte 128,32
	.byte 32,0
	.byte 0,0
	.byte 0,0
	.byte 0,0
	.byte 0,0
	.byte 0,0
	.byte 0,0
	.byte 0,0
	.byte 0,0
	.byte 0,0
	.byte 0,0
	.byte 0,0
	.byte 0,0
	.byte 0,128
	.byte 192,64
	.byte 64,128
	.byte 192,64
	.byte 160,96
	.byte 176,176
	.byte 208,240
	.byte 'p,240
	.byte 176,96
	.byte 160,96
	.byte 0,0
	.byte 0,192
	.byte 96,48
	.byte 24,12
	.byte 4,6
	.byte 130,'F
	.byte 2,226
	.byte 2,2
	.byte 2,6
	.byte 6,143
	.byte 140,143
	.byte 159,176
	.byte 48,'t
	.byte 'c,192
	.byte 142,15
	.byte 14,0
	.byte 0,0
	.byte 128,128
	.byte 227,28
	.byte 0,0
	.byte 0,0
	.byte 0,0
	.byte 0,0
	.byte 0,0
	.byte 0,0
	.byte 0,0
	.byte 0,0
	.byte 0,0
	.byte 0,0
	.byte 0,0
	.byte 0,0
	.byte 0,0
	.byte 64,184
	.byte 'D,226
	.byte 'C,3
	.byte 6,248
	.byte 'E,242
	.byte 28,199
	.byte 226,2
	.byte 3,2
	.byte 13,58
	.byte 197,'Z
	.byte 0,0
	.byte 63,247
	.byte 192,0
	.byte 0,0
	.byte 60,194
	.byte 61,194
	.byte 21,64
	.byte 0,0
	.byte 0,0
	.byte 2,3
	.byte 5,5
	.byte 7,1
	.byte 6,1
	.byte 0,0
	.byte 0,1
	.byte 3,3
	.byte 5,11
	.byte 33,158
	.byte 33,223
	.byte 44,248
	.byte 192,0
	.byte 0,0
	.byte 0,0
	.byte 0,0
	.byte 0,0
	.byte 0,0
	.byte 0,0
	.byte 0,0
	.byte 0,0
	.byte 0,192
	.byte 32,208
	.byte 248,144
	.byte 156,151
	.byte 146,244
	.byte 244,14
	.byte 162,'U
	.byte 170,3
	.byte 94,168
	.byte 17,'P
	.byte 176,'X
	.byte 172,7
	.byte 'y,134
	.byte 0,0
	.byte 0,1
	.byte 3,7
	.byte 14,172
	.byte 252,'Y
	.byte 186,241
	.byte 182,53
	.byte 50,52
	.byte 232,48
	.byte 96,32
	.byte 32,32
	.byte 48,224
	.byte 48,16
	.byte 16,24
	.byte 136,'l
	.byte 30,3
	.byte 0,0
	.byte 1,162
	.byte 20,234
	.byte 21,234
	.byte 255,0
	.byte 0,0
	.byte 0,0
	.byte 0,0
	.byte 0,0
	.byte 0,0
	.byte 0,0
	.byte 0,0
	.byte 0,0
	.byte 63,253
	.byte 162,93
	.byte 162,255
	.byte 149,'k
	.byte 149,'i
	.byte 134,'X
	.byte 162,'U
	.byte 170,64
	.byte 181,'J
	.byte 160,'U
	.byte 170,212
	.byte 169,'V
	.byte 169,'V
	.byte 0,0
	.byte 0,0
	.byte 0,0
	.byte 0,0
	.byte 3,14
	.byte 13,58
	.byte 53,'k
	.byte 214,236
	.byte 157,238
	.byte 24,232
	.byte 24,224
	.byte 28,231
	.byte 20,234
	.byte 150,225
	.byte 209,168
	.byte 224,232
	.byte 244,42
	.byte 57,26
	.byte 29,14
	.byte 7,3
	.byte 0,0
	.byte 0,0
	.byte 0,0
	.byte 0,0
	.byte 0,0
	.byte 0,0
	.byte 0,0
	.byte 0,0
	.byte 0,0
	.byte 0,0
	.byte 1,3
	.byte 7,6
	.byte 63,125
	.byte 254,249
	.byte 190,57
	.byte 30,189
	.byte 252,127
	.byte 60,'w
	.byte 206,'w
	.byte 139,'u
	.byte 138,'u
	.byte 138,245
	.byte 0,0
	.byte 0,0
	.byte 0,0
	.byte 0,0
	.byte 0,0
	.byte 0,0
	.byte 0,0
	.byte 0,0
	.byte 1,1
	.byte 1,3
	.byte 11,15
	.byte 3,13
	.byte 3,12
	.byte 3,12
	.byte 3,12
	.byte 3,13
	.byte 3,15
	.byte 14,12
	.byte 0,0
	.byte 0,0
	.byte 0,0
	.byte 0,0
	.byte 0,0
	.byte 0,0
	.byte 0,0
	.byte 0,0
	.byte 0,0
	.byte 0,0
	.byte 0,0
	.byte 0,0
	.byte 0,0
	.byte 0,0
	.byte 0,0
	.byte 0,1
	.byte 0,1
	.byte 1,0
	.byte 0,0
	.byte 0,8
	.byte 15,5
	.byte 10,5
	.byte 10,5
	.byte 10,7
	.dbsym e pic _pic A[504:504]kc
_pic1::
	.byte 28,8
	.byte 254,8
	.byte 8,250
	.byte 175,250
	.byte 8,0
	.byte 0,0
	.byte 128,124
	.byte 128,0
	.byte 0,0
	.byte 148,'V
	.byte 60,212
	.byte 0,56
	.byte 40,56
	.byte 0,0
	.byte 244,148
	.byte 148,220
	.byte 0,0
	.byte 0,0
	.byte 193,255
	.byte 252,141
	.byte 61,'x
	.byte 0,0
	.byte 0,0
	.byte 1,1
	.byte 9,5
	.byte 29,61
	.byte 125,127
	.byte 27,11
	.byte 131,255
	.byte 127,63
	.byte 143,135
	.byte 3,131
	.byte 255,255
	.byte 255,255
	.byte 255,15
	.byte 0,0
	.byte 40,40
	.byte 40,40
	.byte 40,41
	.byte 40,43
	.byte 40,40
	.byte 41,41
	.byte 40,40
	.byte 40,41
	.byte 40,40
	.byte 40,40
	.byte 32,4
	.byte 10,18
	.byte 36,18
	.byte 10,36
	.byte 32,40
	.byte 40,0
	.byte 16,24
	.byte 60,63
	.byte 63,63
	.byte 63,63
	.byte 56,32
	.byte 0,3
	.byte 48,48
	.byte 32,16
	.byte 0,0
	.byte 0,0
	.byte 0,0
	.byte 0,2
	.byte 33,48
	.byte 56,63
	.byte 60,60
	.byte 63,63
	.byte 63,63
	.byte 63,15
	.byte 33,40
	.byte 40,40
	.dbsym e pic1 _pic1 A[144:144]kc
_pic2::
	.byte 255,'M
	.byte 'C,'A
	.byte 'A,'A
	.byte 'A,'A
	.byte 1,1
	.byte 3,5
	.byte 11,23
	.byte 31,29
	.byte 19,21
	.byte 187,245
	.byte 235,213
	.byte 171,245
	.byte 235,213
	.byte 171,213
	.byte 171,213
	.byte 171,'U
	.byte 43,'w
	.byte 191,0
	.byte 20,20
	.byte 148,252
	.byte 146,'P
	.byte 254,16
	.byte 146,'T
	.byte 16,0
	.byte 0,224
	.byte 0,248
	.byte 0,2
	.byte 28,0
	.byte 0,96
	.byte 128,0
	.byte 0,'p
	.byte 240,240
	.byte 224,192
	.byte 224,240
	.byte 240,'p
	.byte 0,0
	.byte 255,'F
	.byte 15,223
	.byte 175,'G
	.byte 175,30
	.byte 24,0
	.byte 0,0
	.byte 0,0
	.byte 0,0
	.byte 0,8
	.byte 14,12
	.byte 238,'F
	.byte 134,'V
	.byte 190,92
	.byte 56,0
	.byte 6,9
	.byte 200,24
	.byte 236,'U
	.byte 170,0
	.byte 1,137
	.byte 136,143
	.byte 132,132
	.byte 130,131
	.byte 132,136
	.byte 14,0
	.byte 1,128
	.byte 128,143
	.byte 136,136
	.byte 136,136
	.byte 143,128
	.byte 1,0
	.byte 0,0
	.byte 0,129
	.byte 3,7
	.byte 131,1
	.byte 0,0
	.byte 0,0
	.byte 255,'U
	.byte 190,224
	.byte 129,1
	.byte 1,1
	.byte 0,0
	.byte 6,8
	.byte 64,64
	.byte 64,64
	.byte 64,0
	.byte 0,0
	.byte 1,3
	.byte 3,3
	.byte 2,129
	.byte 64,32
	.byte 16,252
	.byte 169,'X
	.byte 171,'U
	.byte 170,0
	.byte 0,255
	.byte 2,186
	.byte 170,170
	.byte 254,170
	.byte 170,187
	.byte 128,0
	.byte 8,8
	.byte 8,8
	.byte 8,255
	.byte 8,8
	.byte 8,8
	.byte 8,0
	.byte 8,4
	.byte 254,137
	.byte 'D,51
	.byte 2,250
	.byte 2,50
	.byte 198,0
	.byte 15,5
	.byte 10,15
	.byte 10,5
	.byte 10,12
	.byte 8,0
	.byte 0,0
	.byte 0,0
	.byte 0,0
	.byte 0,0
	.byte 8,8
	.byte 4,4
	.byte 2,2
	.byte 1,0
	.byte 0,0
	.byte 0,15
	.byte 10,5
	.byte 10,5
	.byte 10,0
	.byte 3,0
	.byte 0,3
	.byte 0,2
	.byte 3,2
	.byte 0,2
	.byte 3,0
	.byte 0,0
	.byte 0,2
	.byte 2,3
	.byte 0,0
	.byte 0,0
	.byte 0,0
	.byte 0,0
	.byte 3,0
	.byte 0,2
	.byte 2,3
	.byte 0,0
	.byte 0,0
	.dbsym e pic2 _pic2 A[288:288]kc
	.area text(rom, con, rel)
	.dbfile F:\工程\LCD5110\My_Nokia5510_LCD\程序\AVR\LCD5510(ICCAVR_M8)\LCD5510_V3_Demo.C
	.dbfunc e delay50ms _delay50ms fV
;              j -> R16
;              i -> R18
	.even
_delay50ms::
	.dbline -1
	.dbline 92
	.dbline 93
	ldi R16,50
L103:
	.dbline 94
	.dbline 94
	ldi R18,249
L106:
	.dbline 94
	.dbline 94
	dec R18
	.dbline 94
L107:
	.dbline 94
	tst R18
	brne L106
	.dbline 94
	dec R16
	.dbline 94
L104:
	.dbline 94
	tst R16
	brne L103
	.dbline -2
L102:
	.dbline 0 ; func end
	ret
	.dbsym r j 16 c
	.dbsym r i 18 c
	.dbend
	.dbfunc e delay200ms _delay200ms fV
;              z -> R16
;              y -> R18
;              x -> R20
	.even
_delay200ms::
	rcall push_gset1
	.dbline -1
	.dbline 99
	.dbline 100
	ldi R16,78
L110:
	.dbline 101
	.dbline 101
	ldi R18,160
L113:
	.dbline 101
	.dbline 101
	ldi R20,3
L116:
	.dbline 101
	.dbline 101
	dec R20
	.dbline 101
L117:
	.dbline 101
	tst R20
	brne L116
	.dbline 101
	dec R18
	.dbline 101
L114:
	.dbline 101
	tst R18
	brne L113
	.dbline 101
	dec R16
	.dbline 101
L111:
	.dbline 101
	tst R16
	brne L110
	.dbline -2
L109:
	rcall pop_gset1
	.dbline 0 ; func end
	ret
	.dbsym r z 16 c
	.dbsym r y 18 c
	.dbsym r x 20 c
	.dbend
	.dbfunc e delay1s _delay1s fV
;              z -> R16
;              y -> R18
;              x -> R20
	.even
_delay1s::
	rcall push_gset1
	.dbline -1
	.dbline 107
	.dbline 108
	ldi R16,98
L120:
	.dbline 109
	.dbline 109
	ldi R18,255
L123:
	.dbline 109
	.dbline 109
	ldi R20,9
L126:
	.dbline 109
	.dbline 109
	dec R20
	.dbline 109
L127:
	.dbline 109
	tst R20
	brne L126
	.dbline 109
	dec R18
	.dbline 109
L124:
	.dbline 109
	tst R18
	brne L123
	.dbline 109
	dec R16
	.dbline 109
L121:
	.dbline 109
	tst R16
	brne L120
	.dbline -2
L119:
	rcall pop_gset1
	.dbline 0 ; func end
	ret
	.dbsym r z 16 c
	.dbsym r y 18 c
	.dbsym r x 20 c
	.dbend
	.dbfunc e main _main fV
;              k -> R20
;              j -> R22
;              i -> R10
;   LCD_contrast -> R12
	.even
_main::
	sbiw R28,6
	.dbline -1
	.dbline 116
	.dbline 117
	clr R10
	.dbline 117
	clr R22
	.dbline 117
	clr R20
	.dbline 118
	ldi R24,200
	mov R12,R24
	.dbline 120
	rcall _LCD5510_Init
	.dbline 122
	ldi R24,<L130
	ldi R25,>L130
	std y+1,R25
	std y+0,R24
	ldi R18,3
	clr R16
	rcall _LCD_prints
	.dbline 123
	rcall _delay1s
	.dbline 123
	rcall _delay1s
	rjmp L132
L131:
	.dbline 126
	.dbline 127
	lds R2,_str1
	lds R3,_str1+1
	movw R24,R2
	adiw R24,1
	sts _str1+1,R25
	sts _str1,R24
	std y+1,R3
	std y+0,R2
	clr R18
	clr R16
	rcall _LCD_prints
	.dbline 128
	rcall _delay200ms
	.dbline 128
	inc R10
	.dbline 129
	clr R16
	rcall _LCD_clr_row
	.dbline 130
L132:
	.dbline 125
	lds R30,_str1
	lds R31,_str1+1
	lpm R30,Z
	tst R30
	brne L131
	.dbline 131
	mov R2,R10
	clr R3
	lds R4,_str1
	lds R5,_str1+1
	sub R4,R2
	sbc R5,R3
	sts _str1+1,R5
	sts _str1,R4
	.dbline 132
	movw R2,R4
	std y+1,R3
	std y+0,R2
	clr R18
	clr R16
	rcall _LCD_printsl
	.dbline 133
	rcall _delay1s
	.dbline 135
	rcall _LCD_clr_scr
	.dbline 136
	rcall _delay1s
	.dbline 137
	ldi R16,<_pic
	ldi R17,>_pic
	rcall _LCD_picture
	.dbline 138
	rcall _delay1s
	.dbline 138
	rcall _delay1s
	.dbline 140
	rcall _LCD_clr_scr
	.dbline 141
	rcall _delay1s
	.dbline 142
	ldi R24,<_pic1
	ldi R25,>_pic1
	std y+5,R25
	std y+4,R24
	ldi R24,14
	std y+2,R24
	ldi R24,72
	std y+0,R24
	clr R18
	clr R16
	rcall _LCD_pos_picture
	.dbline 143
	rcall _delay1s
	.dbline 144
	ldi R24,<_pic2
	ldi R25,>_pic2
	std y+5,R25
	std y+4,R24
	ldi R24,28
	std y+2,R24
	ldi R24,72
	std y+0,R24
	ldi R18,2
	clr R16
	rcall _LCD_pos_picture
	.dbline 145
	rcall _delay1s
	.dbline 145
	rcall _delay1s
	.dbline 146
	rcall _LCD_clr_scr
	.dbline 147
	ldi R24,<L134
	ldi R25,>L134
	std y+1,R25
	std y+0,R24
	clr R18
	clr R16
	rcall _LCD_showsh
	.dbline 148
	rcall _delay1s
	.dbline 149
	ldi R24,<L135
	ldi R25,>L135
	std y+1,R25
	std y+0,R24
	ldi R18,1
	clr R16
	rcall _LCD_showsh
	.dbline 150
	rcall _delay1s
	.dbline 151
	ldi R24,<L136
	ldi R25,>L136
	std y+1,R25
	std y+0,R24
	ldi R18,2
	clr R16
	rcall _LCD_showsh
	.dbline 152
	rcall _delay1s
	.dbline 152
	rcall _delay1s
	.dbline 156
	rcall _LCD_clr_scr
	.dbline 157
	clr R10
	rjmp L140
L137:
	.dbline 157
	.dbline 157
	lds R2,_str2
	lds R3,_str2+1
	mov R30,R10
	clr R31
	add R30,R2
	adc R31,R3
	lpm R30,Z
	std y+0,R30
	ldi R18,2
	mov R16,R10
	rcall _LCD_printc
	.dbline 157
	rcall _delay200ms
	.dbline 157
L138:
	.dbline 157
	inc R10
L140:
	.dbline 157
	mov R24,R10
	cpi R24,14
	brlo L137
	.dbline 158
	ldi R24,5
	std y+2,R24
	ldi R24,13140
	ldi R25,51
	std y+1,R25
	std y+0,R24
	ldi R18,3
	ldi R16,2
	rcall _LCD_printn
	.dbline 159
	rcall _delay1s
	.dbline 160
	ldi R24,<L141
	ldi R25,>L141
	std y+1,R25
	std y+0,R24
	ldi R18,4
	clr R16
	rcall _LCD_prints
	.dbline 161
	rcall _delay1s
	.dbline 164
	ldi R24,<L142
	ldi R25,>L142
	std y+1,R25
	std y+0,R24
	clr R18
	clr R16
	rcall _LCD_prints
	.dbline 165
	rcall _delay1s
	.dbline 166
	clr R18
	ldi R16,8
	rcall _LCD_write_byte
	.dbline 167
	rcall _delay1s
	.dbline 168
	ldi R24,<L143
	ldi R25,>L143
	std y+1,R25
	std y+0,R24
	clr R18
	clr R16
	rcall _LCD_prints
	.dbline 169
	clr R18
	ldi R16,12
	rcall _LCD_write_byte
	.dbline 170
	rcall _delay1s
	.dbline 171
	ldi R24,<L144
	ldi R25,>L144
	std y+1,R25
	std y+0,R24
	clr R18
	clr R16
	rcall _LCD_prints
	.dbline 172
	rcall _delay1s
	.dbline 173
	clr R18
	ldi R16,9
	rcall _LCD_write_byte
	.dbline 174
	rcall _delay1s
	.dbline 175
	clr R18
	ldi R16,12
	rcall _LCD_write_byte
	.dbline 176
	rcall _delay1s
	.dbline 177
	ldi R24,<L145
	ldi R25,>L145
	std y+1,R25
	std y+0,R24
	clr R18
	clr R16
	rcall _LCD_prints
	.dbline 178
	clr R18
	ldi R16,13
	rcall _LCD_write_byte
	.dbline 179
	rcall _delay1s
	.dbline 180
	ldi R24,<L146
	ldi R25,>L146
	std y+1,R25
	std y+0,R24
	clr R18
	clr R16
	rcall _LCD_prints
	.dbline 181
	clr R18
	ldi R16,12
	rcall _LCD_write_byte
	.dbline 182
	rcall _delay1s
	.dbline 183
	rcall _LCD_clr_scr
	.dbline 184
	rcall _delay1s
	.dbline 187
	clr R10
	.dbline 187
	clr R22
	.dbline 187
	clr R20
	.dbline 188
	ldi R24,<L147
	ldi R25,>L147
	std y+1,R25
	std y+0,R24
	ldi R18,5
	clr R16
	rcall _LCD_prints
	rjmp L149
L148:
	.dbline 190
	.dbline 191
	mov R24,R20
	subi R24,224    ; addi 32
	std y+0,R24
	mov R18,R22
	mov R16,R10
	rcall _LCD_printc
	.dbline 192
	rcall _delay50ms
	.dbline 193
	inc R10
	.dbline 193
	mov R24,R10
	cpi R24,14
	brne L151
	.dbline 193
	.dbline 193
	clr R10
	.dbline 193
	inc R22
	.dbline 193
L151:
	.dbline 194
	cpi R22,5
	brne L153
	.dbline 194
	clr R22
L153:
	.dbline 195
	ldi R24,3
	std y+2,R24
	mov R24,R20
	clr R25
	adiw R24,32
	std y+1,R25
	std y+0,R24
	ldi R18,5
	ldi R16,11
	rcall _LCD_printn
	.dbline 196
L149:
	.dbline 189
	mov R2,R20
	clr R3
	subi R20,255    ; addi 1
	mov R24,R2
	cpi R24,100
	brlo L148
	.dbline 197
	rcall _delay1s
	.dbline 200
	rcall _LCD_clr_scr
	.dbline 201
	ldi R24,<L155
	ldi R25,>L155
	std y+1,R25
	std y+0,R24
	clr R18
	ldi R16,2
	rcall _LCD_prints
	.dbline 202
	ldi R24,<L156
	ldi R25,>L156
	std y+1,R25
	std y+0,R24
	ldi R18,2
	ldi R16,2
	rcall _LCD_prints
	.dbline 203
	ldi R24,<L157
	ldi R25,>L157
	std y+1,R25
	std y+0,R24
	ldi R18,4
	clr R16
	rcall _LCD_prints
	rjmp L159
L158:
	.dbline 205
	.dbline 206
	clr R10
	rjmp L164
L161:
	.dbline 207
	.dbline 208
	inc R12
	.dbline 209
	clr R18
	ldi R16,33
	rcall _LCD_write_byte
	.dbline 210
	clr R18
	mov R16,R12
	rcall _LCD_write_byte
	.dbline 211
	clr R18
	ldi R16,32
	rcall _LCD_write_byte
	.dbline 212
	ldi R24,129
	std y+0,R24
	ldi R18,4
	ldi R16,13
	rcall _LCD_printc
	.dbline 213
	ldi R24,3
	std y+2,R24
	mov R2,R12
	clr R3
	std y+1,R3
	std y+0,R2
	ldi R18,5
	ldi R16,5
	rcall _LCD_printn
	.dbline 214
	rcall _delay200ms
	.dbline 215
L162:
	.dbline 206
	inc R10
L164:
	.dbline 206
	mov R24,R10
	cpi R24,10
	brlo L161
	.dbline 216
	clr R10
	rjmp L168
L165:
	.dbline 217
	.dbline 218
	dec R12
	.dbline 219
	clr R18
	ldi R16,33
	rcall _LCD_write_byte
	.dbline 220
	clr R18
	mov R16,R12
	rcall _LCD_write_byte
	.dbline 221
	clr R18
	ldi R16,32
	rcall _LCD_write_byte
	.dbline 222
	ldi R24,130
	std y+0,R24
	ldi R18,4
	ldi R16,13
	rcall _LCD_printc
	.dbline 223
	ldi R24,3
	std y+2,R24
	mov R2,R12
	clr R3
	std y+1,R3
	std y+0,R2
	ldi R18,5
	ldi R16,5
	rcall _LCD_printn
	.dbline 224
	rcall _delay200ms
	.dbline 225
L166:
	.dbline 216
	inc R10
L168:
	.dbline 216
	mov R24,R10
	cpi R24,20
	brlo L165
	.dbline 226
	clr R10
	rjmp L172
L169:
	.dbline 227
	.dbline 228
	inc R12
	.dbline 229
	clr R18
	ldi R16,33
	rcall _LCD_write_byte
	.dbline 230
	clr R18
	mov R16,R12
	rcall _LCD_write_byte
	.dbline 231
	clr R18
	ldi R16,32
	rcall _LCD_write_byte
	.dbline 232
	ldi R24,129
	std y+0,R24
	ldi R18,4
	ldi R16,13
	rcall _LCD_printc
	.dbline 233
	ldi R24,3
	std y+2,R24
	mov R2,R12
	clr R3
	std y+1,R3
	std y+0,R2
	ldi R18,5
	ldi R16,5
	rcall _LCD_printn
	.dbline 234
	rcall _delay200ms
	.dbline 235
L170:
	.dbline 226
	inc R10
L172:
	.dbline 226
	mov R24,R10
	cpi R24,10
	brlo L169
	.dbline 236
L159:
	.dbline 204
	rjmp L158
X2:
	.dbline -2
L129:
	adiw R28,6
	.dbline 0 ; func end
	ret
	.dbsym r k 20 c
	.dbsym r j 22 c
	.dbsym r i 10 c
	.dbsym r LCD_contrast 12 c
	.dbend
	.area lit(rom, con, rel)
L157:
	.byte 'L,'C,'D,95,'C,'o,'n,'t,'r,'a,'s,'t,58,0
L156:
	.byte 'A,'l,'e,'x,'i,50,48,48,56,0
L155:
	.byte 'N,'o,'k,'i,'a,32,53,53,49,48,0
L147:
	.byte 'A,'S,'C,'I,'I,32,'C,'o,'d,'e,58,0
L146:
	.byte 'N,'o,'r,'m,'a,'l,32,'a,'g,'a,'i,'n,0
L145:
	.byte 'I,'n,'v,'e,'r,'s,'e,32,'T,'e,'s,'t,0
L144:
	.byte 'B,'l,'a,'c,'k,32,'T,'e,'s,'t,32,0
L143:
	.byte 'N,'o,'r,'m,'a,'l,32,'T,'e,'s,'t,0
L142:
	.byte 'B,'l,'a,'n,'k,32,'T,'e,'s,'t,32,0
L141:
	.byte 62,45,45,40,42,94,95,94,42,41,45,45,60,0
L136:
	.byte 211,192,186,227,214,174,208,196,161,239,0
L135:
	.byte 211,192,186,227,161,239,206,210,208,196,0
L134:
	.byte 206,210,208,196,161,239,211,192,186,227,0
L130:
	.byte 62,62,62,'W,'e,'l,'c,'o,'m,'e,60,60,60,0
L101:
	.byte 'I,32,'L,'o,'v,'e,32,'Y,'o,'u,32,'A,'V,'R,0
L100:
	.byte 'N,'o,'k,'i,'a,32,53,53,49,48,32,'T,'e,'s,'t,44
	.byte 32,'H,'a,'h,'a,32,94,95,94,32,'I,32,'a,'m,32,'s
	.byte 'o,32,'g,'l,'a,'d,32,'t,'o,32,'s,'e,'e,32,'y,'o
	.byte 'u,32,'a,'g,'i,'a,'n,33,32,'D,'o,32,'y,'o,'u,32
	.byte 't,'h,'i,'n,'k,32,'s,'o,63,0
